target datalayout = "e-m:e-p270:32:32-p271:32:32-p272:64:64-i64:64-i128:128-f80:128-n8:16:32:64-S128"
target triple = "x86_64-pc-linux-gnu"

; Function Attrs: nounwind sspstrong willreturn memory(read) uwtable
define dso_local i32 @rb_st_locale_insensitive_strcasecmp(ptr noundef nonnull %0, ptr noundef nonnull %1) #5 {
  %3 = alloca i32, align 4
  %4 = alloca ptr, align 8
  %5 = alloca ptr, align 8
  %6 = alloca i8, align 1
  %7 = alloca i8, align 1
  %8 = alloca i32, align 4
  store ptr %0, ptr %4, align 8, !tbaa !67
  store ptr %1, ptr %5, align 8, !tbaa !67
  call void @llvm.lifetime.start.p0(i64 1, ptr %6) #23
  call void @llvm.lifetime.start.p0(i64 1, ptr %7) #23
  br label %9

9:                                                ; preds = %75, %2
  br label %10

10:                                               ; preds = %9
  %11 = load ptr, ptr %4, align 8, !tbaa !67
  %12 = getelementptr i8, ptr %11, i32 1
  store ptr %12, ptr %4, align 8, !tbaa !67
  %13 = load i8, ptr %11, align 1, !tbaa !46
  store i8 %13, ptr %6, align 1, !tbaa !46
  %14 = load ptr, ptr %5, align 8, !tbaa !67
  %15 = getelementptr i8, ptr %14, i32 1
  store ptr %15, ptr %5, align 8, !tbaa !67
  %16 = load i8, ptr %14, align 1, !tbaa !46
  store i8 %16, ptr %7, align 1, !tbaa !46
  %17 = load i8, ptr %6, align 1, !tbaa !46
  %18 = sext i8 %17 to i32
  %19 = icmp eq i32 %18, 0
  br i1 %19, label %24, label %20

20:                                               ; preds = %10
  %21 = load i8, ptr %7, align 1, !tbaa !46
  %22 = sext i8 %21 to i32
  %23 = icmp eq i32 %22, 0
  br i1 %23, label %24, label %35

24:                                               ; preds = %20, %10
  %25 = load i8, ptr %6, align 1, !tbaa !46
  %26 = sext i8 %25 to i32
  %27 = icmp ne i32 %26, 0
  br i1 %27, label %28, label %29

28:                                               ; preds = %24
  store i32 1, ptr %3, align 4
  store i32 1, ptr %8, align 4
  br label %76

29:                                               ; preds = %24
  %30 = load i8, ptr %7, align 1, !tbaa !46
  %31 = sext i8 %30 to i32
  %32 = icmp ne i32 %31, 0
  br i1 %32, label %33, label %34

33:                                               ; preds = %29
  store i32 -1, ptr %3, align 4
  store i32 1, ptr %8, align 4
  br label %76

34:                                               ; preds = %29
  store i32 0, ptr %3, align 4
  store i32 1, ptr %8, align 4
  br label %76

35:                                               ; preds = %20
  %36 = load i8, ptr %6, align 1, !tbaa !46
  %37 = sext i8 %36 to i32
  %38 = icmp sle i32 65, %37
  br i1 %38, label %39, label %48

39:                                               ; preds = %35
  %40 = load i8, ptr %6, align 1, !tbaa !46
  %41 = sext i8 %40 to i32
  %42 = icmp sle i32 %41, 90
  br i1 %42, label %43, label %48

43:                                               ; preds = %39
  %44 = load i8, ptr %6, align 1, !tbaa !46
  %45 = sext i8 %44 to i32
  %46 = add i32 %45, 32
  %47 = trunc i32 %46 to i8
  store i8 %47, ptr %6, align 1, !tbaa !46
  br label %48

48:                                               ; preds = %43, %39, %35
  %49 = load i8, ptr %7, align 1, !tbaa !46
  %50 = sext i8 %49 to i32
  %51 = icmp sle i32 65, %50
  br i1 %51, label %52, label %61

52:                                               ; preds = %48
  %53 = load i8, ptr %7, align 1, !tbaa !46
  %54 = sext i8 %53 to i32
  %55 = icmp sle i32 %54, 90
  br i1 %55, label %56, label %61

56:                                               ; preds = %52
  %57 = load i8, ptr %7, align 1, !tbaa !46
  %58 = sext i8 %57 to i32
  %59 = add i32 %58, 32
  %60 = trunc i32 %59 to i8
  store i8 %60, ptr %7, align 1, !tbaa !46
  br label %61

61:                                               ; preds = %56, %52, %48
  %62 = load i8, ptr %6, align 1, !tbaa !46
  %63 = sext i8 %62 to i32
  %64 = load i8, ptr %7, align 1, !tbaa !46
  %65 = sext i8 %64 to i32
  %66 = icmp ne i32 %63, %65
  br i1 %66, label %67, label %75

67:                                               ; preds = %61
  %68 = load i8, ptr %6, align 1, !tbaa !46
  %69 = sext i8 %68 to i32
  %70 = load i8, ptr %7, align 1, !tbaa !46
  %71 = sext i8 %70 to i32
  %72 = icmp sgt i32 %69, %71
  br i1 %72, label %73, label %74

73:                                               ; preds = %67
  store i32 1, ptr %3, align 4
  store i32 1, ptr %8, align 4
  br label %76

74:                                               ; preds = %67
  store i32 -1, ptr %3, align 4
  store i32 1, ptr %8, align 4
  br label %76

75:                                               ; preds = %61
  br label %9

76:                                               ; preds = %74, %73, %34, %33, %28
  call void @llvm.lifetime.end.p0(i64 1, ptr %7) #23
  call void @llvm.lifetime.end.p0(i64 1, ptr %6) #23
  %77 = load i32, ptr %3, align 4
  ret i32 %77
}