; Function Attrs: mustprogress nofree norecurse nosync nounwind sspstrong willreturn memory(argmem: read) uwtable
define dso_local range(i32 -1, 2) i32 @rb_st_locale_insensitive_strcasecmp(ptr noundef nonnull readonly captures(none) %0, ptr noundef nonnull readonly captures(none) %1) local_unnamed_addr #3 {
  br label %3

3:                                                ; preds = %9, %2
  %.026 = phi ptr [ %0, %2 ], [ %11, %9 ]
  %.025 = phi ptr [ %1, %2 ], [ %10, %9 ]
  %4 = load i8, ptr %.026, align 1, !tbaa !43
  %5 = load i8, ptr %.025, align 1, !tbaa !43
  %6 = icmp eq i8 %4, 0
  %7 = icmp eq i8 %5, 0
  %or.cond = select i1 %6, i1 true, i1 %7
  br i1 %or.cond, label %8, label %9

8:                                                ; preds = %3
  %not. = xor i1 %7, true
  %. = sext i1 %not. to i32
  %spec.select35 = select i1 %6, i32 %., i32 1
  br label %18

9:                                                ; preds = %3
  %10 = getelementptr i8, ptr %.025, i64 1
  %11 = getelementptr i8, ptr %.026, i64 1
  %12 = add i8 %4, -65
  %or.cond5 = icmp ult i8 %12, 26
  %13 = or disjoint i8 %4, 32
  %spec.select = select i1 %or.cond5, i8 %13, i8 %4
  %14 = add i8 %5, -65
  %or.cond8 = icmp ult i8 %14, 26
  %15 = or disjoint i8 %5, 32
  %.0 = select i1 %or.cond8, i8 %15, i8 %5
  %.not = icmp eq i8 %spec.select, %.0
  br i1 %.not, label %3, label %16

16:                                               ; preds = %9
  %17 = icmp sgt i8 %spec.select, %.0
  %.34 = select i1 %17, i32 1, i32 -1
  br label %18

18:                                               ; preds = %8, %16
  %.027 = phi i32 [ %.34, %16 ], [ %spec.select35, %8 ]
  ret i32 %.027
}